; ModuleID = 'bench/linux/original/xfrm6_state.ll'
source_filename = "bench/linux/original/xfrm6_state.ll"
target datalayout = "e-m:e-p270:32:32-p271:32:32-p272:64:64-i64:64-i128:128-f80:128-n8:16:32:64-S128"
target triple = "x86_64-unknown-linux-gnu"

%struct.xfrm_state_afinfo = type { i8, i8, ptr, ptr, ptr, ptr, ptr, ptr, ptr, ptr, ptr, ptr, ptr }

@xfrm6_state_afinfo = internal global %struct.xfrm_state_afinfo { i8 10, i8 41, ptr null, ptr null, ptr null, ptr null, ptr null, ptr null, ptr null, ptr null, ptr @xfrm6_output, ptr @xfrm6_transport_finish, ptr @xfrm6_local_error }, align 8

; Function Attrs: cold fn_ret_thunk_extern nounwind null_pointer_is_valid optsize
define dso_local i32 @xfrm6_state_init() local_unnamed_addr #0 section ".init.text" align 16 {
  %1 = tail call i32 @xfrm_state_register_afinfo(ptr noundef nonnull @xfrm6_state_afinfo) #3
  ret i32 %1
}

; Function Attrs: null_pointer_is_valid
declare dso_local i32 @xfrm_state_register_afinfo(ptr noundef) local_unnamed_addr #1

; Function Attrs: fn_ret_thunk_extern nounwind null_pointer_is_valid
define dso_local void @xfrm6_state_fini() local_unnamed_addr #2 align 16 {
  %1 = tail call i32 @xfrm_state_unregister_afinfo(ptr noundef nonnull @xfrm6_state_afinfo) #3
  ret void
}

; Function Attrs: null_pointer_is_valid
declare dso_local i32 @xfrm_state_unregister_afinfo(ptr noundef) local_unnamed_addr #1

; Function Attrs: null_pointer_is_valid
declare dso_local i32 @xfrm6_output(ptr noundef, ptr noundef, ptr noundef) #1

; Function Attrs: null_pointer_is_valid
declare dso_local i32 @xfrm6_transport_finish(ptr noundef, i32 noundef) #1

; Function Attrs: null_pointer_is_valid
declare dso_local void @xfrm6_local_error(ptr noundef, i32 noundef) #1


!llvm.module.flags = !{!0, !1, !2, !3, !4}

!0 = !{i32 1, !"wchar_size", i32 2}
!1 = !{i32 8, !"cf-protection-branch", i32 1}
!2 = !{i32 4, !"function_return_thunk_extern", i32 1}
!3 = !{i32 4, !"indirect_branch_cs_prefix", i32 1}
!4 = !{i32 4, !"SkipRaxSetup", i32 1}
